target datalayout = "e-m:e-p270:32:32-p271:32:32-p272:64:64-i64:64-i128:128-f80:128-n8:16:32:64-S128"
target triple = "x86_64-pc-linux-gnu"

%struct.Aig_Obj_t_ = type { %union.anon, ptr, ptr, i64, i32, i32, %union.anon.0 }
%union.anon = type { ptr }
%union.anon.0 = type { ptr }
%struct.Fra_Man_t_ = type { ptr, ptr, ptr, i32, ptr, i32, ptr, ptr, ptr, i32, ptr, ptr, ptr, ptr, i32, ptr, i64, i64, ptr, ptr, i32, ptr, i32, i32, i32, i32, i32, i32, i32, i32, i32, i32, i32, i32, i32, i32, i32, i32, i32, i32, i32, i64, i64, i64, i64, i64, i64, i64, i64, i64, i64, i64 }
%struct.Fra_Bmc_t_ = type { i32, i32, i32, ptr, ptr, ptr, ptr, ptr, ptr }
%struct.Aig_Man_t_ = type { ptr, ptr, ptr, ptr, ptr, ptr, ptr, %struct.Aig_Obj_t_, i32, i32, i32, i32, i32, i32, [7 x i32], i32, ptr, i32, ptr, i32, ptr, i32, i32, i32, ptr, i32, i32, i32, i32, i32, ptr, ptr, i32, ptr, ptr, i32, ptr, ptr, i32, i32, i32, ptr, ptr, ptr, ptr, ptr, ptr, ptr, ptr, ptr, ptr, ptr, ptr, ptr, ptr, i32, ptr, ptr, ptr, ptr, i32, i64, i64, i64, ptr, ptr }
%struct.Vec_Int_t_ = type { i32, i32, ptr }
%struct.Vec_Ptr_t_ = type { i32, i32, ptr }

; Function Attrs: inlinehint nounwind uwtable
define internal ptr @Vec_PtrEntry(ptr noundef %0, i32 noundef %1) #2 {
  %3 = alloca ptr, align 8
  %4 = alloca i32, align 4
  store ptr %0, ptr %3, align 8, !tbaa !77
  store i32 %1, ptr %4, align 4, !tbaa !28
  %5 = load ptr, ptr %3, align 8, !tbaa !77
  %6 = getelementptr inbounds nuw %struct.Vec_Ptr_t_, ptr %5, i32 0, i32 2
  %7 = load ptr, ptr %6, align 8, !tbaa !78
  %8 = load i32, ptr %4, align 4, !tbaa !28
  %9 = sext i32 %8 to i64
  %10 = getelementptr inbounds ptr, ptr %7, i64 %9
  %11 = load ptr, ptr %10, align 8, !tbaa !80
  ret ptr %11
}

; Function Attrs: inlinehint nounwind uwtable
define internal void @Vec_IntWriteEntry(ptr noundef %0, i32 noundef %1, i32 noundef %2) #2 {
  %4 = alloca ptr, align 8
  %5 = alloca i32, align 4
  %6 = alloca i32, align 4
  store ptr %0, ptr %4, align 8, !tbaa !49
  store i32 %1, ptr %5, align 4, !tbaa !28
  store i32 %2, ptr %6, align 4, !tbaa !28
  %7 = load i32, ptr %6, align 4, !tbaa !28
  %8 = load ptr, ptr %4, align 8, !tbaa !49
  %9 = getelementptr inbounds nuw %struct.Vec_Int_t_, ptr %8, i32 0, i32 2
  %10 = load ptr, ptr %9, align 8, !tbaa !52
  %11 = load i32, ptr %5, align 4, !tbaa !28
  %12 = sext i32 %11 to i64
  %13 = getelementptr inbounds i32, ptr %10, i64 %12
  store i32 %7, ptr %13, align 4, !tbaa !28
  ret void
}

; Function Attrs: inlinehint nounwind uwtable
define internal i32 @Aig_ObjIsConst1(ptr noundef %0) #2 {
  %2 = alloca ptr, align 8
  store ptr %0, ptr %2, align 8, !tbaa !3
  %3 = load ptr, ptr %2, align 8, !tbaa !3
  %4 = getelementptr inbounds nuw %struct.Aig_Obj_t_, ptr %3, i32 0, i32 3
  %5 = load i64, ptr %4, align 8
  %6 = and i64 %5, 7
  %7 = trunc i64 %6 to i32
  %8 = icmp eq i32 %7, 1
  %9 = zext i1 %8 to i32
  ret i32 %9
}

; Function Attrs: inlinehint nounwind uwtable
define internal i32 @Aig_IsComplement(ptr noundef %0) #2 {
  %2 = alloca ptr, align 8
  store ptr %0, ptr %2, align 8, !tbaa !3
  %3 = load ptr, ptr %2, align 8, !tbaa !3
  %4 = ptrtoint ptr %3 to i64
  %5 = and i64 %4, 1
  %6 = trunc i64 %5 to i32
  ret i32 %6
}

; Function Attrs: inlinehint nounwind uwtable
define internal ptr @Fra_ObjFraig(ptr noundef %0, i32 noundef %1) #2 {
  %3 = alloca ptr, align 8
  %4 = alloca i32, align 4
  store ptr %0, ptr %3, align 8, !tbaa !3
  store i32 %1, ptr %4, align 4, !tbaa !28
  %5 = load ptr, ptr %3, align 8, !tbaa !3
  %6 = getelementptr inbounds nuw %struct.Aig_Obj_t_, ptr %5, i32 0, i32 6
  %7 = load ptr, ptr %6, align 8, !tbaa !8
  %8 = getelementptr inbounds nuw %struct.Fra_Man_t_, ptr %7, i32 0, i32 4
  %9 = load ptr, ptr %8, align 8, !tbaa !54
  %10 = load ptr, ptr %3, align 8, !tbaa !3
  %11 = getelementptr inbounds nuw %struct.Aig_Obj_t_, ptr %10, i32 0, i32 6
  %12 = load ptr, ptr %11, align 8, !tbaa !8
  %13 = getelementptr inbounds nuw %struct.Fra_Man_t_, ptr %12, i32 0, i32 3
  %14 = load i32, ptr %13, align 8, !tbaa !55
  %15 = load ptr, ptr %3, align 8, !tbaa !3
  %16 = getelementptr inbounds nuw %struct.Aig_Obj_t_, ptr %15, i32 0, i32 5
  %17 = load i32, ptr %16, align 4, !tbaa !33
  %18 = mul nsw i32 %14, %17
  %19 = load i32, ptr %4, align 4, !tbaa !28
  %20 = add nsw i32 %18, %19
  %21 = sext i32 %20 to i64
  %22 = getelementptr inbounds ptr, ptr %9, i64 %21
  %23 = load ptr, ptr %22, align 8, !tbaa !3
  ret ptr %23
}

; Function Attrs: inlinehint nounwind uwtable
define internal ptr @Aig_Regular(ptr noundef %0) #2 {
  %2 = alloca ptr, align 8
  store ptr %0, ptr %2, align 8, !tbaa !3
  %3 = load ptr, ptr %2, align 8, !tbaa !3
  %4 = ptrtoint ptr %3 to i64
  %5 = and i64 %4, -2
  %6 = inttoptr i64 %5 to ptr
  ret ptr %6
}

; Function Attrs: inlinehint nounwind uwtable
define internal ptr @Bmc_ObjFrames(ptr noundef %0, i32 noundef %1) #2 {
  %3 = alloca ptr, align 8
  %4 = alloca i32, align 4
  store ptr %0, ptr %3, align 8, !tbaa !3
  store i32 %1, ptr %4, align 4, !tbaa !28
  %5 = load ptr, ptr %3, align 8, !tbaa !3
  %6 = getelementptr inbounds nuw %struct.Aig_Obj_t_, ptr %5, i32 0, i32 6
  %7 = load ptr, ptr %6, align 8, !tbaa !8
  %8 = getelementptr inbounds nuw %struct.Fra_Man_t_, ptr %7, i32 0, i32 8
  %9 = load ptr, ptr %8, align 8, !tbaa !11
  %10 = getelementptr inbounds nuw %struct.Fra_Bmc_t_, ptr %9, i32 0, i32 7
  %11 = load ptr, ptr %10, align 8, !tbaa !32
  %12 = load ptr, ptr %3, align 8, !tbaa !3
  %13 = getelementptr inbounds nuw %struct.Aig_Obj_t_, ptr %12, i32 0, i32 6
  %14 = load ptr, ptr %13, align 8, !tbaa !8
  %15 = getelementptr inbounds nuw %struct.Fra_Man_t_, ptr %14, i32 0, i32 8
  %16 = load ptr, ptr %15, align 8, !tbaa !11
  %17 = getelementptr inbounds nuw %struct.Fra_Bmc_t_, ptr %16, i32 0, i32 2
  %18 = load i32, ptr %17, align 8, !tbaa !29
  %19 = load ptr, ptr %3, align 8, !tbaa !3
  %20 = getelementptr inbounds nuw %struct.Aig_Obj_t_, ptr %19, i32 0, i32 5
  %21 = load i32, ptr %20, align 4, !tbaa !33
  %22 = mul nsw i32 %18, %21
  %23 = load i32, ptr %4, align 4, !tbaa !28
  %24 = add nsw i32 %22, %23
  %25 = sext i32 %24 to i64
  %26 = getelementptr inbounds ptr, ptr %11, i64 %25
  %27 = load ptr, ptr %26, align 8, !tbaa !3
  ret ptr %27
}

; Function Attrs: inlinehint nounwind uwtable
define internal ptr @Aig_ManObj(ptr noundef %0, i32 noundef %1) #2 {
  %3 = alloca ptr, align 8
  %4 = alloca i32, align 4
  store ptr %0, ptr %3, align 8, !tbaa !37
  store i32 %1, ptr %4, align 4, !tbaa !28
  %5 = load ptr, ptr %3, align 8, !tbaa !37
  %6 = getelementptr inbounds nuw %struct.Aig_Man_t_, ptr %5, i32 0, i32 4
  %7 = load ptr, ptr %6, align 8, !tbaa !53
  %8 = icmp ne ptr %7, null
  br i1 %8, label %9, label %15

9:                                                ; preds = %2
  %10 = load ptr, ptr %3, align 8, !tbaa !37
  %11 = getelementptr inbounds nuw %struct.Aig_Man_t_, ptr %10, i32 0, i32 4
  %12 = load ptr, ptr %11, align 8, !tbaa !53
  %13 = load i32, ptr %4, align 4, !tbaa !28
  %14 = call ptr @Vec_PtrEntry(ptr noundef %12, i32 noundef %13)
  br label %16

15:                                               ; preds = %2
  br label %16

16:                                               ; preds = %15, %9
  %17 = phi ptr [ %14, %9 ], [ null, %15 ]
  ret ptr %17
}

; Function Attrs: inlinehint nounwind uwtable
define internal i32 @Fra_ImpRight(i32 noundef %0) #2 {
  %2 = alloca i32, align 4
  store i32 %0, ptr %2, align 4, !tbaa !28
  %3 = load i32, ptr %2, align 4, !tbaa !28
  %4 = ashr i32 %3, 16
  ret i32 %4
}

; Function Attrs: inlinehint nounwind uwtable
define internal i32 @Fra_ImpLeft(i32 noundef %0) #2 {
  %2 = alloca i32, align 4
  store i32 %0, ptr %2, align 4, !tbaa !28
  %3 = load i32, ptr %2, align 4, !tbaa !28
  %4 = and i32 %3, 65535
  ret i32 %4
}

; Function Attrs: inlinehint nounwind uwtable
define internal i32 @Vec_IntEntry(ptr noundef %0, i32 noundef %1) #2 {
  %3 = alloca ptr, align 8
  %4 = alloca i32, align 4
  store ptr %0, ptr %3, align 8, !tbaa !49
  store i32 %1, ptr %4, align 4, !tbaa !28
  %5 = load ptr, ptr %3, align 8, !tbaa !49
  %6 = getelementptr inbounds nuw %struct.Vec_Int_t_, ptr %5, i32 0, i32 2
  %7 = load ptr, ptr %6, align 8, !tbaa !52
  %8 = load i32, ptr %4, align 4, !tbaa !28
  %9 = sext i32 %8 to i64
  %10 = getelementptr inbounds i32, ptr %7, i64 %9
  %11 = load i32, ptr %10, align 4, !tbaa !28
  ret i32 %11
}

; Function Attrs: inlinehint nounwind uwtable
define internal i32 @Vec_IntSize(ptr noundef %0) #2 {
  %2 = alloca ptr, align 8
  store ptr %0, ptr %2, align 8, !tbaa !49
  %3 = load ptr, ptr %2, align 8, !tbaa !49
  %4 = getelementptr inbounds nuw %struct.Vec_Int_t_, ptr %3, i32 0, i32 1
  %5 = load i32, ptr %4, align 4, !tbaa !50
  ret i32 %5
}

; Function Attrs: nounwind uwtable
define void @Fra_BmcFilterImplications(ptr noundef %0, ptr noundef %1) #0 {
  %3 = alloca ptr, align 8
  %4 = alloca ptr, align 8
  %5 = alloca ptr, align 8
  %6 = alloca ptr, align 8
  %7 = alloca ptr, align 8
  %8 = alloca ptr, align 8
  %9 = alloca ptr, align 8
  %10 = alloca ptr, align 8
  %11 = alloca i32, align 4
  %12 = alloca i32, align 4
  %13 = alloca i32, align 4
  %14 = alloca i32, align 4
  %15 = alloca i32, align 4
  %16 = alloca i32, align 4
  %17 = alloca i32, align 4
  store ptr %0, ptr %3, align 8, !tbaa !9
  store ptr %1, ptr %4, align 8, !tbaa !44
  call void @llvm.lifetime.start.p0(i64 8, ptr %5) #9
  call void @llvm.lifetime.start.p0(i64 8, ptr %6) #9
  call void @llvm.lifetime.start.p0(i64 8, ptr %7) #9
  call void @llvm.lifetime.start.p0(i64 8, ptr %8) #9
  call void @llvm.lifetime.start.p0(i64 8, ptr %9) #9
  call void @llvm.lifetime.start.p0(i64 8, ptr %10) #9
  call void @llvm.lifetime.start.p0(i64 4, ptr %11) #9
  call void @llvm.lifetime.start.p0(i64 4, ptr %12) #9
  call void @llvm.lifetime.start.p0(i64 4, ptr %13) #9
  call void @llvm.lifetime.start.p0(i64 4, ptr %14) #9
  call void @llvm.lifetime.start.p0(i64 4, ptr %15) #9
  call void @llvm.lifetime.start.p0(i64 4, ptr %16) #9
  call void @llvm.lifetime.start.p0(i64 4, ptr %17) #9
  store i32 0, ptr %11, align 4, !tbaa !28
  br label %18

18:                                               ; preds = %142, %2
  %19 = load i32, ptr %11, align 4, !tbaa !28
  %20 = load ptr, ptr %4, align 8, !tbaa !44
  %21 = getelementptr inbounds nuw %struct.Fra_Bmc_t_, ptr %20, i32 0, i32 3
  %22 = load ptr, ptr %21, align 8, !tbaa !45
  %23 = call i32 @Vec_IntSize(ptr noundef %22)
  %24 = icmp slt i32 %19, %23
  br i1 %24, label %25, label %31

25:                                               ; preds = %18
  %26 = load ptr, ptr %4, align 8, !tbaa !44
  %27 = getelementptr inbounds nuw %struct.Fra_Bmc_t_, ptr %26, i32 0, i32 3
  %28 = load ptr, ptr %27, align 8, !tbaa !45
  %29 = load i32, ptr %11, align 4, !tbaa !28
  %30 = call i32 @Vec_IntEntry(ptr noundef %28, i32 noundef %29)
  store i32 %30, ptr %13, align 4, !tbaa !28
  br label %31

31:                                               ; preds = %25, %18
  %32 = phi i1 [ false, %18 ], [ true, %25 ]
  br i1 %32, label %33, label %145

33:                                               ; preds = %31
  %34 = load i32, ptr %13, align 4, !tbaa !28
  %35 = icmp eq i32 %34, 0
  br i1 %35, label %36, label %37

36:                                               ; preds = %33
  br label %142

37:                                               ; preds = %33
  %38 = load i32, ptr %13, align 4, !tbaa !28
  %39 = call i32 @Fra_ImpLeft(i32 noundef %38)
  store i32 %39, ptr %14, align 4, !tbaa !28
  %40 = load i32, ptr %13, align 4, !tbaa !28
  %41 = call i32 @Fra_ImpRight(i32 noundef %40)
  store i32 %41, ptr %15, align 4, !tbaa !28
  %42 = load ptr, ptr %4, align 8, !tbaa !44
  %43 = getelementptr inbounds nuw %struct.Fra_Bmc_t_, ptr %42, i32 0, i32 4
  %44 = load ptr, ptr %43, align 8, !tbaa !46
  %45 = load i32, ptr %14, align 4, !tbaa !28
  %46 = call ptr @Aig_ManObj(ptr noundef %44, i32 noundef %45)
  store ptr %46, ptr %5, align 8, !tbaa !3
  %47 = load ptr, ptr %4, align 8, !tbaa !44
  %48 = getelementptr inbounds nuw %struct.Fra_Bmc_t_, ptr %47, i32 0, i32 4
  %49 = load ptr, ptr %48, align 8, !tbaa !46
  %50 = load i32, ptr %15, align 4, !tbaa !28
  %51 = call ptr @Aig_ManObj(ptr noundef %49, i32 noundef %50)
  store ptr %51, ptr %6, align 8, !tbaa !3
  %52 = load ptr, ptr %4, align 8, !tbaa !44
  %53 = getelementptr inbounds nuw %struct.Fra_Bmc_t_, ptr %52, i32 0, i32 0
  %54 = load i32, ptr %53, align 8, !tbaa !26
  store i32 %54, ptr %12, align 4, !tbaa !28
  br label %55

55:                                               ; preds = %138, %37
  %56 = load i32, ptr %12, align 4, !tbaa !28
  %57 = load ptr, ptr %4, align 8, !tbaa !44
  %58 = getelementptr inbounds nuw %struct.Fra_Bmc_t_, ptr %57, i32 0, i32 2
  %59 = load i32, ptr %58, align 8, !tbaa !29
  %60 = icmp slt i32 %56, %59
  br i1 %60, label %61, label %141

61:                                               ; preds = %55
  %62 = load ptr, ptr %5, align 8, !tbaa !3
  %63 = load i32, ptr %12, align 4, !tbaa !28
  %64 = call ptr @Bmc_ObjFrames(ptr noundef %62, i32 noundef %63)
  store ptr %64, ptr %7, align 8, !tbaa !3
  %65 = load ptr, ptr %6, align 8, !tbaa !3
  %66 = load i32, ptr %12, align 4, !tbaa !28
  %67 = call ptr @Bmc_ObjFrames(ptr noundef %65, i32 noundef %66)
  store ptr %67, ptr %8, align 8, !tbaa !3
  %68 = load ptr, ptr %7, align 8, !tbaa !3
  %69 = call ptr @Aig_Regular(ptr noundef %68)
  %70 = call ptr @Fra_ObjFraig(ptr noundef %69, i32 noundef 0)
  store ptr %70, ptr %9, align 8, !tbaa !3
  %71 = load ptr, ptr %8, align 8, !tbaa !3
  %72 = call ptr @Aig_Regular(ptr noundef %71)
  %73 = call ptr @Fra_ObjFraig(ptr noundef %72, i32 noundef 0)
  store ptr %73, ptr %10, align 8, !tbaa !3
  %74 = load ptr, ptr %5, align 8, !tbaa !3
  %75 = getelementptr inbounds nuw %struct.Aig_Obj_t_, ptr %74, i32 0, i32 3
  %76 = load i64, ptr %75, align 8
  %77 = lshr i64 %76, 3
  %78 = and i64 %77, 1
  %79 = trunc i64 %78 to i32
  %80 = load ptr, ptr %9, align 8, !tbaa !3
  %81 = call i32 @Aig_IsComplement(ptr noundef %80)
  %82 = xor i32 %79, %81
  %83 = load ptr, ptr %7, align 8, !tbaa !3
  %84 = call i32 @Aig_IsComplement(ptr noundef %83)
  %85 = xor i32 %82, %84
  store i32 %85, ptr %16, align 4, !tbaa !28
  %86 = load ptr, ptr %6, align 8, !tbaa !3
  %87 = getelementptr inbounds nuw %struct.Aig_Obj_t_, ptr %86, i32 0, i32 3
  %88 = load i64, ptr %87, align 8
  %89 = lshr i64 %88, 3
  %90 = and i64 %89, 1
  %91 = trunc i64 %90 to i32
  %92 = load ptr, ptr %10, align 8, !tbaa !3
  %93 = call i32 @Aig_IsComplement(ptr noundef %92)
  %94 = xor i32 %91, %93
  %95 = load ptr, ptr %8, align 8, !tbaa !3
  %96 = call i32 @Aig_IsComplement(ptr noundef %95)
  %97 = xor i32 %94, %96
  store i32 %97, ptr %17, align 4, !tbaa !28
  %98 = load ptr, ptr %9, align 8, !tbaa !3
  %99 = call ptr @Aig_Regular(ptr noundef %98)
  %100 = load ptr, ptr %10, align 8, !tbaa !3
  %101 = call ptr @Aig_Regular(ptr noundef %100)
  %102 = icmp eq ptr %99, %101
  br i1 %102, label %103, label %122

103:                                              ; preds = %61
  %104 = load i32, ptr %16, align 4, !tbaa !28
  %105 = load i32, ptr %17, align 4, !tbaa !28
  %106 = icmp eq i32 %104, %105
  br i1 %106, label %107, label %108

107:                                              ; preds = %103
  br label %138

108:                                              ; preds = %103
  %109 = load ptr, ptr %9, align 8, !tbaa !3
  %110 = call ptr @Aig_Regular(ptr noundef %109)
  %111 = call i32 @Aig_ObjIsConst1(ptr noundef %110)
  %112 = icmp ne i32 %111, 0
  br i1 %112, label %113, label %117

113:                                              ; preds = %108
  %114 = load i32, ptr %16, align 4, !tbaa !28
  %115 = icmp ne i32 %114, 0
  br i1 %115, label %116, label %117

116:                                              ; preds = %113
  br label %138

117:                                              ; preds = %113, %108
  %118 = load ptr, ptr %4, align 8, !tbaa !44
  %119 = getelementptr inbounds nuw %struct.Fra_Bmc_t_, ptr %118, i32 0, i32 3
  %120 = load ptr, ptr %119, align 8, !tbaa !45
  %121 = load i32, ptr %11, align 4, !tbaa !28
  call void @Vec_IntWriteEntry(ptr noundef %120, i32 noundef %121, i32 noundef 0)
  br label %141

122:                                              ; preds = %61
  %123 = load ptr, ptr %3, align 8, !tbaa !9
  %124 = load ptr, ptr %9, align 8, !tbaa !3
  %125 = call ptr @Aig_Regular(ptr noundef %124)
  %126 = load ptr, ptr %10, align 8, !tbaa !3
  %127 = call ptr @Aig_Regular(ptr noundef %126)
  %128 = load i32, ptr %16, align 4, !tbaa !28
  %129 = load i32, ptr %17, align 4, !tbaa !28
  %130 = call i32 @Fra_NodesAreImp(ptr noundef %123, ptr noundef %125, ptr noundef %127, i32 noundef %128, i32 noundef %129)
  %131 = icmp ne i32 %130, 1
  br i1 %131, label %132, label %137

132:                                              ; preds = %122
  %133 = load ptr, ptr %4, align 8, !tbaa !44
  %134 = getelementptr inbounds nuw %struct.Fra_Bmc_t_, ptr %133, i32 0, i32 3
  %135 = load ptr, ptr %134, align 8, !tbaa !45
  %136 = load i32, ptr %11, align 4, !tbaa !28
  call void @Vec_IntWriteEntry(ptr noundef %135, i32 noundef %136, i32 noundef 0)
  br label %141

137:                                              ; preds = %122
  br label %138

138:                                              ; preds = %137, %116, %107
  %139 = load i32, ptr %12, align 4, !tbaa !28
  %140 = add nsw i32 %139, 1
  store i32 %140, ptr %12, align 4, !tbaa !28
  br label %55, !llvm.loop !47

141:                                              ; preds = %132, %117, %55
  br label %142

142:                                              ; preds = %141, %36
  %143 = load i32, ptr %11, align 4, !tbaa !28
  %144 = add nsw i32 %143, 1
  store i32 %144, ptr %11, align 4, !tbaa !28
  br label %18, !llvm.loop !48

145:                                              ; preds = %31
  %146 = load ptr, ptr %4, align 8, !tbaa !44
  %147 = getelementptr inbounds nuw %struct.Fra_Bmc_t_, ptr %146, i32 0, i32 3
  %148 = load ptr, ptr %147, align 8, !tbaa !45
  call void @Fra_ImpCompactArray(ptr noundef %148)
  call void @llvm.lifetime.end.p0(i64 4, ptr %17) #9
  call void @llvm.lifetime.end.p0(i64 4, ptr %16) #9
  call void @llvm.lifetime.end.p0(i64 4, ptr %15) #9
  call void @llvm.lifetime.end.p0(i64 4, ptr %14) #9
  call void @llvm.lifetime.end.p0(i64 4, ptr %13) #9
  call void @llvm.lifetime.end.p0(i64 4, ptr %12) #9
  call void @llvm.lifetime.end.p0(i64 4, ptr %11) #9
  call void @llvm.lifetime.end.p0(i64 8, ptr %10) #9
  call void @llvm.lifetime.end.p0(i64 8, ptr %9) #9
  call void @llvm.lifetime.end.p0(i64 8, ptr %8) #9
  call void @llvm.lifetime.end.p0(i64 8, ptr %7) #9
  call void @llvm.lifetime.end.p0(i64 8, ptr %6) #9
  call void @llvm.lifetime.end.p0(i64 8, ptr %5) #9
  ret void
}