; Function Attrs: nounwind uwtable
define void @Fra_BmcFilterImplications(ptr noundef %0, ptr noundef readonly captures(none) %1) #2 {
  %3 = getelementptr inbounds nuw i8, ptr %1, i64 16
  %4 = load ptr, ptr %3, align 8, !tbaa !40
  %5 = getelementptr i8, ptr %4, i64 4
  %.val5269 = load i32, ptr %5, align 4, !tbaa !41
  %6 = icmp sgt i32 %.val5269, 0
  br i1 %6, label %.lr.ph71, label %.critedge

.lr.ph71:                                         ; preds = %2
  %7 = getelementptr inbounds nuw i8, ptr %1, i64 24
  %8 = getelementptr inbounds nuw i8, ptr %1, i64 8
  br label %9

9:                                                ; preds = %.lr.ph71, %.loopexit
  %10 = phi ptr [ %4, %.lr.ph71 ], [ %123, %.loopexit ]
  %indvars.iv = phi i64 [ 0, %.lr.ph71 ], [ %indvars.iv.next, %.loopexit ]
  %11 = getelementptr i8, ptr %10, i64 8
  %.val53 = load ptr, ptr %11, align 8, !tbaa !43
  %12 = getelementptr inbounds nuw i32, ptr %.val53, i64 %indvars.iv
  %13 = load i32, ptr %12, align 4, !tbaa !44
  %14 = icmp eq i32 %13, 0
  br i1 %14, label %.loopexit, label %15

15:                                               ; preds = %9
  %16 = load ptr, ptr %7, align 8, !tbaa !45
  %17 = getelementptr i8, ptr %16, i64 32
  %.val54 = load ptr, ptr %17, align 8, !tbaa !46
  %.not.i = icmp eq ptr %.val54, null
  br i1 %.not.i, label %Aig_ManObj.exit67, label %18

18:                                               ; preds = %15
  %19 = ashr i32 %13, 16
  %20 = and i32 %13, 65535
  %21 = getelementptr i8, ptr %.val54, i64 8
  %.val.i = load ptr, ptr %21, align 8, !tbaa !47
  %22 = zext nneg i32 %20 to i64
  %23 = getelementptr inbounds nuw ptr, ptr %.val.i, i64 %22
  %24 = load ptr, ptr %23, align 8, !tbaa !49
  %25 = sext i32 %19 to i64
  %26 = getelementptr inbounds ptr, ptr %.val.i, i64 %25
  %27 = load ptr, ptr %26, align 8, !tbaa !49
  br label %Aig_ManObj.exit67

Aig_ManObj.exit67:                                ; preds = %15, %18
  %28 = phi ptr [ %24, %18 ], [ null, %15 ]
  %29 = phi ptr [ %27, %18 ], [ null, %15 ]
  %30 = load i32, ptr %1, align 8, !tbaa !22
  %31 = load i32, ptr %8, align 8, !tbaa !24
  %32 = icmp slt i32 %30, %31
  br i1 %32, label %.lr.ph, label %.loopexit

.lr.ph:                                           ; preds = %Aig_ManObj.exit67
  %33 = getelementptr i8, ptr %28, i64 36
  %34 = getelementptr i8, ptr %28, i64 40
  %35 = getelementptr i8, ptr %29, i64 36
  %36 = getelementptr i8, ptr %29, i64 40
  %37 = getelementptr inbounds nuw i8, ptr %28, i64 24
  %38 = getelementptr inbounds nuw i8, ptr %29, i64 24
  br label %39

39:                                               ; preds = %.lr.ph, %119
  %40 = phi i32 [ %31, %.lr.ph ], [ %120, %119 ]
  %.04468 = phi i32 [ %30, %.lr.ph ], [ %121, %119 ]
  %.val48 = load i32, ptr %33, align 4, !tbaa !25
  %.val49 = load ptr, ptr %34, align 8, !tbaa !3
  %41 = getelementptr i8, ptr %.val49, i64 64
  %.val49.val = load ptr, ptr %41, align 8, !tbaa !6
  %42 = getelementptr i8, ptr %.val49.val, i64 8
  %.val49.val.val = load i32, ptr %42, align 8, !tbaa !24
  %43 = getelementptr i8, ptr %.val49.val, i64 48
  %.val49.val.val51 = load ptr, ptr %43, align 8, !tbaa !28
  %44 = mul nsw i32 %.val49.val.val, %.val48
  %45 = add nsw i32 %44, %.04468
  %46 = sext i32 %45 to i64
  %47 = getelementptr inbounds ptr, ptr %.val49.val.val51, i64 %46
  %48 = load ptr, ptr %47, align 8, !tbaa !29
  %.val = load i32, ptr %35, align 4, !tbaa !25
  %.val47 = load ptr, ptr %36, align 8, !tbaa !3
  %49 = getelementptr i8, ptr %.val47, i64 64
  %.val47.val = load ptr, ptr %49, align 8, !tbaa !6
  %50 = getelementptr i8, ptr %.val47.val, i64 8
  %.val47.val.val = load i32, ptr %50, align 8, !tbaa !24
  %51 = getelementptr i8, ptr %.val47.val, i64 48
  %.val47.val.val50 = load ptr, ptr %51, align 8, !tbaa !28
  %52 = mul nsw i32 %.val47.val.val, %.val
  %53 = add nsw i32 %52, %.04468
  %54 = sext i32 %53 to i64
  %55 = getelementptr inbounds ptr, ptr %.val47.val.val50, i64 %54
  %56 = load ptr, ptr %55, align 8, !tbaa !29
  %57 = ptrtoint ptr %48 to i64
  %58 = and i64 %57, -2
  %59 = inttoptr i64 %58 to ptr
  %60 = getelementptr i8, ptr %59, i64 36
  %.val56 = load i32, ptr %60, align 4, !tbaa !25
  %61 = getelementptr i8, ptr %59, i64 40
  %.val57 = load ptr, ptr %61, align 8, !tbaa !3
  %62 = getelementptr i8, ptr %.val57, i64 24
  %.val57.val = load i32, ptr %62, align 8, !tbaa !50
  %63 = getelementptr i8, ptr %.val57, i64 32
  %.val57.val61 = load ptr, ptr %63, align 8, !tbaa !51
  %64 = mul nsw i32 %.val57.val, %.val56
  %65 = sext i32 %64 to i64
  %66 = getelementptr inbounds ptr, ptr %.val57.val61, i64 %65
  %67 = load ptr, ptr %66, align 8, !tbaa !29
  %68 = ptrtoint ptr %56 to i64
  %69 = and i64 %68, -2
  %70 = inttoptr i64 %69 to ptr
  %71 = getelementptr i8, ptr %70, i64 36
  %.val58 = load i32, ptr %71, align 4, !tbaa !25
  %72 = getelementptr i8, ptr %70, i64 40
  %.val59 = load ptr, ptr %72, align 8, !tbaa !3
  %73 = getelementptr i8, ptr %.val59, i64 24
  %.val59.val = load i32, ptr %73, align 8, !tbaa !50
  %74 = getelementptr i8, ptr %.val59, i64 32
  %.val59.val60 = load ptr, ptr %74, align 8, !tbaa !51
  %75 = mul nsw i32 %.val59.val, %.val58
  %76 = sext i32 %75 to i64
  %77 = getelementptr inbounds ptr, ptr %.val59.val60, i64 %76
  %78 = load ptr, ptr %77, align 8, !tbaa !29
  %79 = load i64, ptr %37, align 8
  %80 = trunc i64 %79 to i32
  %81 = lshr i32 %80, 3
  %82 = ptrtoint ptr %67 to i64
  %83 = trunc i64 %82 to i32
  %84 = xor i32 %81, %83
  %85 = and i32 %84, 1
  %86 = trunc i64 %57 to i32
  %87 = and i32 %86, 1
  %88 = xor i32 %85, %87
  %89 = load i64, ptr %38, align 8
  %90 = trunc i64 %89 to i32
  %91 = lshr i32 %90, 3
  %92 = ptrtoint ptr %78 to i64
  %93 = xor i64 %92, %68
  %94 = trunc i64 %93 to i32
  %95 = xor i32 %91, %94
  %96 = and i32 %95, 1
  %97 = and i64 %82, -2
  %98 = inttoptr i64 %97 to ptr
  %99 = and i64 %92, -2
  %100 = icmp eq i64 %97, %99
  br i1 %100, label %101, label %112

101:                                              ; preds = %39
  %102 = icmp eq i32 %88, %96
  br i1 %102, label %119, label %103

103:                                              ; preds = %101
  %104 = getelementptr i8, ptr %98, i64 24
  %.val62 = load i64, ptr %104, align 8
  %105 = and i64 %.val62, 7
  %106 = icmp eq i64 %105, 1
  %107 = icmp ne i32 %85, %87
  %or.cond = select i1 %106, i1 %107, i1 false
  br i1 %or.cond, label %119, label %108

108:                                              ; preds = %103
  %109 = load ptr, ptr %3, align 8, !tbaa !40
  %110 = getelementptr i8, ptr %109, i64 8
  %.val63 = load ptr, ptr %110, align 8, !tbaa !43
  %111 = getelementptr inbounds nuw i32, ptr %.val63, i64 %indvars.iv
  store i32 0, ptr %111, align 4, !tbaa !44
  br label %.loopexit

112:                                              ; preds = %39
  %113 = inttoptr i64 %99 to ptr
  %114 = tail call i32 @Fra_NodesAreImp(ptr noundef %0, ptr noundef %98, ptr noundef %113, i32 noundef %88, i32 noundef %96) #16
  %.not = icmp eq i32 %114, 1
  br i1 %.not, label %._crit_edge, label %115

._crit_edge:                                      ; preds = %112
  %.pre = load i32, ptr %8, align 8, !tbaa !24
  br label %119

115:                                              ; preds = %112
  %116 = load ptr, ptr %3, align 8, !tbaa !40
  %117 = getelementptr i8, ptr %116, i64 8
  %.val64 = load ptr, ptr %117, align 8, !tbaa !43
  %118 = getelementptr inbounds nuw i32, ptr %.val64, i64 %indvars.iv
  store i32 0, ptr %118, align 4, !tbaa !44
  br label %.loopexit

119:                                              ; preds = %._crit_edge, %103, %101
  %120 = phi i32 [ %.pre, %._crit_edge ], [ %40, %103 ], [ %40, %101 ]
  %121 = add nsw i32 %.04468, 1
  %122 = icmp slt i32 %121, %120
  br i1 %122, label %39, label %.loopexit.loopexit, !llvm.loop !52

.loopexit.loopexit:                               ; preds = %119
  %.pre74 = load ptr, ptr %3, align 8, !tbaa !40
  br label %.loopexit

.loopexit:                                        ; preds = %.loopexit.loopexit, %Aig_ManObj.exit67, %108, %115, %9
  %123 = phi ptr [ %.pre74, %.loopexit.loopexit ], [ %10, %Aig_ManObj.exit67 ], [ %109, %108 ], [ %116, %115 ], [ %10, %9 ]
  %indvars.iv.next = add nuw nsw i64 %indvars.iv, 1
  %124 = getelementptr i8, ptr %123, i64 4
  %.val52 = load i32, ptr %124, align 4, !tbaa !41
  %125 = sext i32 %.val52 to i64
  %126 = icmp slt i64 %indvars.iv.next, %125
  br i1 %126, label %9, label %.critedge, !llvm.loop !53

.critedge:                                        ; preds = %.loopexit, %2
  %.lcssa = phi ptr [ %4, %2 ], [ %123, %.loopexit ]
  tail call void @Fra_ImpCompactArray(ptr noundef nonnull %.lcssa) #16
  ret void
}